; Function Attrs: mustprogress nounwind uwtable
define void @_ZN6icu_7517RuleBasedCollatorD2Ev(ptr noundef nonnull align 8 dereferenceable(272) %this) unnamed_addr #0 align 2 personality ptr @__gxx_personality_v0 {
entry:
  %settings = getelementptr inbounds i8, ptr %this, i64 16
  %0 = load ptr, ptr %settings, align 8
  %cmp.not.i = icmp eq ptr %0, null
  br i1 %cmp.not.i, label %invoke.cont, label %if.then.i

if.then.i:                                        ; preds = %entry
  invoke void @_ZNK6icu_7512SharedObject9removeRefEv(ptr noundef nonnull align 8 dereferenceable(24) %0)
          to label %.noexc unwind label %terminate.lpad

.noexc:                                           ; preds = %if.then.i
  store ptr null, ptr %settings, align 8
  br label %invoke.cont

invoke.cont:                                      ; preds = %.noexc, %entry
  %cacheEntry = getelementptr inbounds i8, ptr %this, i64 32
  %1 = load ptr, ptr %cacheEntry, align 8
  %cmp.not.i1 = icmp eq ptr %1, null
  br i1 %cmp.not.i1, label %invoke.cont2, label %if.then.i2

if.then.i2:                                       ; preds = %invoke.cont
  invoke void @_ZNK6icu_7512SharedObject9removeRefEv(ptr noundef nonnull align 8 dereferenceable(24) %1)
          to label %.noexc3 unwind label %terminate.lpad

.noexc3:                                          ; preds = %if.then.i2
  store ptr null, ptr %cacheEntry, align 8
  br label %invoke.cont2

invoke.cont2:                                     ; preds = %.noexc3, %invoke.cont
  %validLocale = getelementptr inbounds i8, ptr %this, i64 40
  tail call void @_ZN6icu_756LocaleD1Ev(ptr noundef nonnull align 8 dereferenceable(217) %validLocale) #17
  tail call void @_ZN6icu_758CollatorD2Ev(ptr noundef nonnull align 8 dereferenceable(8) %this) #17
  ret void

terminate.lpad:                                   ; preds = %if.then.i2, %if.then.i
  %2 = landingpad { ptr, i32 }
          catch ptr null
  %3 = extractvalue { ptr, i32 } %2, 0
  tail call void @__clang_call_terminate(ptr %3) #19
  unreachable
}